target datalayout = "e-m:e-p270:32:32-p271:32:32-p272:64:64-i64:64-i128:128-f80:128-n8:16:32:64-S128"
target triple = "x86_64-pc-linux-gnu"

%struct.Plan = type { %"class.std::map", %class.EdgePriorityQueue, ptr, %"class.std::vector.3", i32, i32 }
%"class.std::map" = type { %"class.std::_Rb_tree" }
%"class.std::_Rb_tree" = type { %"struct.std::_Rb_tree<Edge *, std::pair<Edge *const, Plan::Want>, std::_Select1st<std::pair<Edge *const, Plan::Want>>, std::less<Edge *>>::_Rb_tree_impl" }
%"struct.std::_Rb_tree<Edge *, std::pair<Edge *const, Plan::Want>, std::_Select1st<std::pair<Edge *const, Plan::Want>>, std::less<Edge *>>::_Rb_tree_impl" = type { [8 x i8], %"struct.std::_Rb_tree_header" }
%"struct.std::_Rb_tree_header" = type { %"struct.std::_Rb_tree_node_base", i64 }
%"struct.std::_Rb_tree_node_base" = type { i32, ptr, ptr, ptr }
%class.EdgePriorityQueue = type { %"class.std::priority_queue.base", [7 x i8] }
%"class.std::priority_queue.base" = type <{ %"class.std::vector", i8 }>
%"class.std::vector" = type { %"struct.std::_Vector_base" }
%"struct.std::_Vector_base" = type { %"struct.std::_Vector_base<Edge *, std::allocator<Edge *>>::_Vector_impl" }
%"struct.std::_Vector_base<Edge *, std::allocator<Edge *>>::_Vector_impl" = type { %"struct.std::_Vector_base<Edge *, std::allocator<Edge *>>::_Vector_impl_data" }
%"struct.std::_Vector_base<Edge *, std::allocator<Edge *>>::_Vector_impl_data" = type { ptr, ptr, ptr }
%"class.std::vector.3" = type { %"struct.std::_Vector_base.4" }
%"struct.std::_Vector_base.4" = type { %"struct.std::_Vector_base<const Node *, std::allocator<const Node *>>::_Vector_impl" }
%"struct.std::_Vector_base<const Node *, std::allocator<const Node *>>::_Vector_impl" = type { %"struct.std::_Vector_base<const Node *, std::allocator<const Node *>>::_Vector_impl_data" }
%"struct.std::_Vector_base<const Node *, std::allocator<const Node *>>::_Vector_impl_data" = type { ptr, ptr, ptr }
%"class.std::__cxx11::basic_string" = type { %"struct.std::__cxx11::basic_string<char>::_Alloc_hider", i64, %union.anon }
%"struct.std::__cxx11::basic_string<char>::_Alloc_hider" = type { ptr }
%union.anon = type { i64, [8 x i8] }
%struct.Builder = type <{ ptr, ptr, %struct.Plan, %"class.std::unique_ptr", ptr, %"class.std::map.31", i64, %"class.std::__cxx11::basic_string", ptr, %"class.std::unique_ptr.37", %struct.DependencyScan, i32, [4 x i8] }>
%"class.std::unique_ptr" = type { %"struct.std::__uniq_ptr_data" }
%"struct.std::__uniq_ptr_data" = type { %"class.std::__uniq_ptr_impl" }
%"class.std::__uniq_ptr_impl" = type { %"class.std::tuple" }
%"class.std::tuple" = type { %"struct.std::_Tuple_impl" }
%"struct.std::_Tuple_impl" = type { %"struct.std::_Head_base.30" }
%"struct.std::_Head_base.30" = type { ptr }
%"class.std::map.31" = type { %"class.std::_Rb_tree.32" }
%"class.std::_Rb_tree.32" = type { %"struct.std::_Rb_tree<const Edge *, std::pair<const Edge *const, int>, std::_Select1st<std::pair<const Edge *const, int>>, std::less<const Edge *>>::_Rb_tree_impl" }
%"struct.std::_Rb_tree<const Edge *, std::pair<const Edge *const, int>, std::_Select1st<std::pair<const Edge *const, int>>, std::less<const Edge *>>::_Rb_tree_impl" = type { [8 x i8], %"struct.std::_Rb_tree_header" }
%"class.std::unique_ptr.37" = type { %"struct.std::__uniq_ptr_data.38" }
%"struct.std::__uniq_ptr_data.38" = type { %"class.std::__uniq_ptr_impl.39" }
%"class.std::__uniq_ptr_impl.39" = type { %"class.std::tuple.40" }
%"class.std::tuple.40" = type { %"struct.std::_Tuple_impl.41" }
%"struct.std::_Tuple_impl.41" = type { %"struct.std::_Head_base.44" }
%"struct.std::_Head_base.44" = type { ptr }
%struct.DependencyScan = type { ptr, ptr, %struct.ImplicitDepLoader, %struct.DyndepLoader, %struct.OptionalExplanations }
%struct.ImplicitDepLoader = type { ptr, ptr, ptr, ptr, ptr, %struct.OptionalExplanations }
%struct.DyndepLoader = type { ptr, ptr, %struct.OptionalExplanations }
%struct.OptionalExplanations = type { ptr }

; Function Attrs: mustprogress uwtable
define dso_local void @_ZN4Plan10EdgeWantedEPK4Edge(ptr noundef nonnull align 8 dereferenceable(120) %0, ptr noundef %1) #0 align 2 {
  %3 = alloca ptr, align 8
  %4 = alloca ptr, align 8
  store ptr %0, ptr %3, align 8, !tbaa !4
  store ptr %1, ptr %4, align 8, !tbaa !55
  %5 = load ptr, ptr %3, align 8
  %6 = getelementptr inbounds nuw %struct.Plan, ptr %5, i32 0, i32 5
  %7 = load i32, ptr %6, align 4, !tbaa !39
  %8 = add nsw i32 %7, 1
  store i32 %8, ptr %6, align 4, !tbaa !39
  %9 = load ptr, ptr %4, align 8, !tbaa !55
  %10 = call noundef zeroext i1 @_ZNK4Edge8is_phonyEv(ptr noundef nonnull align 8 dereferenceable(168) %9)
  br i1 %10, label %28, label %11

11:                                               ; preds = %2
  %12 = getelementptr inbounds nuw %struct.Plan, ptr %5, i32 0, i32 4
  %13 = load i32, ptr %12, align 8, !tbaa !38
  %14 = add nsw i32 %13, 1
  store i32 %14, ptr %12, align 8, !tbaa !38
  %15 = getelementptr inbounds nuw %struct.Plan, ptr %5, i32 0, i32 2
  %16 = load ptr, ptr %15, align 8, !tbaa !11
  %17 = icmp ne ptr %16, null
  br i1 %17, label %18, label %27

18:                                               ; preds = %11
  %19 = getelementptr inbounds nuw %struct.Plan, ptr %5, i32 0, i32 2
  %20 = load ptr, ptr %19, align 8, !tbaa !11
  %21 = getelementptr inbounds nuw %struct.Builder, ptr %20, i32 0, i32 4
  %22 = load ptr, ptr %21, align 8, !tbaa !100
  %23 = load ptr, ptr %4, align 8, !tbaa !55
  %24 = load ptr, ptr %22, align 8, !tbaa !133
  %25 = getelementptr inbounds ptr, ptr %24, i64 0
  %26 = load ptr, ptr %25, align 8
  call void %26(ptr noundef nonnull align 8 dereferenceable(8) %22, ptr noundef %23)
  br label %27

27:                                               ; preds = %18, %11
  br label %28

28:                                               ; preds = %27, %2
  ret void
}