; Function Attrs: mustprogress uwtable
define dso_local void @_ZN4Plan10EdgeWantedEPK4Edge(ptr noundef nonnull align 8 captures(none) dereferenceable(120) %0, ptr noundef nonnull %1) local_unnamed_addr #2 align 2 {
  %3 = getelementptr inbounds nuw i8, ptr %0, i64 116
  %4 = load i32, ptr %3, align 4, !tbaa !40
  %5 = add nsw i32 %4, 1
  store i32 %5, ptr %3, align 4, !tbaa !40
  %6 = tail call noundef zeroext i1 @_ZNK4Edge8is_phonyEv(ptr noundef nonnull align 8 dereferenceable(168) %1)
  br i1 %6, label %18, label %7

7:                                                ; preds = %2
  %8 = getelementptr inbounds nuw i8, ptr %0, i64 112
  %9 = load i32, ptr %8, align 8, !tbaa !39
  %10 = add nsw i32 %9, 1
  store i32 %10, ptr %8, align 8, !tbaa !39
  %11 = getelementptr inbounds nuw i8, ptr %0, i64 80
  %12 = load ptr, ptr %11, align 8, !tbaa !16
  %.not = icmp eq ptr %12, null
  br i1 %.not, label %18, label %13

13:                                               ; preds = %7
  %14 = getelementptr inbounds nuw i8, ptr %12, i64 144
  %15 = load ptr, ptr %14, align 8, !tbaa !97
  %16 = load ptr, ptr %15, align 8, !tbaa !130
  %17 = load ptr, ptr %16, align 8
  tail call void %17(ptr noundef nonnull align 8 dereferenceable(8) %15, ptr noundef nonnull %1)
  br label %18

18:                                               ; preds = %7, %13, %2
  ret void
}